; Function Attrs: mustprogress nounwind uwtable
define hidden void @_ZN5XPageD2Ev(ptr noundef nonnull align 8 dereferenceable(136) %0) unnamed_addr #0 align 2 {
  %2 = getelementptr inbounds i8, ptr %0, i64 104
  store i32 0, ptr %2, align 8
  %3 = getelementptr inbounds i8, ptr %0, i64 108
  %4 = load i32, ptr %3, align 4
  %5 = icmp eq i32 %4, 0
  br i1 %5, label %_ZN15XPhysicalMemoryD2Ev.exit, label %.loopexit.i.i.i.i

.loopexit.i.i.i.i:                                ; preds = %1
  %6 = getelementptr inbounds i8, ptr %0, i64 112
  %7 = load ptr, ptr %6, align 8
  store i32 0, ptr %3, align 4
  %.not.i.i.i.i = icmp eq ptr %7, null
  br i1 %.not.i.i.i.i, label %8, label %.loopexit.thread.i.i.i.i

.loopexit.thread.i.i.i.i:                         ; preds = %.loopexit.i.i.i.i
  tail call void @_ZN27GrowableArrayCHeapAllocator10deallocateEPv(ptr noundef nonnull %7) #8
  br label %8

8:                                                ; preds = %.loopexit.thread.i.i.i.i, %.loopexit.i.i.i.i
  store ptr null, ptr %6, align 8
  br label %_ZN15XPhysicalMemoryD2Ev.exit

_ZN15XPhysicalMemoryD2Ev.exit:                    ; preds = %1, %8
  %9 = getelementptr inbounds i8, ptr %0, i64 64
  tail call void @_ZN11CHeapBitMapD2Ev(ptr noundef nonnull align 8 dereferenceable(17) %9) #8
  ret void
}